; ModuleID = '19/2537.c'
source_filename = "19/2537.c"
target datalayout = "e-m:e-p270:32:32-p271:32:32-p272:64:64-i64:64-f80:128-n8:16:32:64-S128"
target triple = "x86_64-pc-linux-gnu"

@.str = private unnamed_addr constant [3 x i8] c"%s\00", align 1
@.str.1 = private unnamed_addr constant [4 x i8] c" %s\00", align 1

; Function Attrs: noinline nounwind uwtable
define dso_local i32 @main() #0 {
  %1 = alloca i32, align 4
  %2 = alloca [100 x i8], align 16
  %3 = alloca [100 x i8], align 16
  %4 = alloca [100 x i8], align 16
  %5 = alloca [50 x [50 x i8]], align 16
  %6 = alloca i32, align 4
  %7 = alloca i32, align 4
  %8 = alloca i32, align 4
  %9 = alloca i32, align 4
  store i32 0, i32* %1, align 4
  %10 = bitcast [50 x [50 x i8]]* %5 to i8*
  call void @llvm.memset.p0i8.i64(i8* align 16 %10, i8 0, i64 2500, i1 false)
  store i32 1, i32* %8, align 4
  store i32 1, i32* %9, align 4
  %11 = getelementptr inbounds [100 x i8], [100 x i8]* %2, i64 0, i64 0
  %12 = call i32 (i8*, ...) bitcast (i32 (...)* @gets to i32 (i8*, ...)*)(i8* %11)
  %13 = getelementptr inbounds [100 x i8], [100 x i8]* %3, i64 0, i64 0
  %14 = call i32 (i8*, ...) bitcast (i32 (...)* @gets to i32 (i8*, ...)*)(i8* %13)
  %15 = getelementptr inbounds [100 x i8], [100 x i8]* %4, i64 0, i64 0
  %16 = call i32 (i8*, ...) bitcast (i32 (...)* @gets to i32 (i8*, ...)*)(i8* %15)
  %17 = getelementptr inbounds [100 x i8], [100 x i8]* %2, i64 0, i64 0
  %18 = call i64 @strlen(i8* %17) #5
  %19 = trunc i64 %18 to i32
  store i32 %19, i32* %6, align 4
  store i32 1, i32* %7, align 4
  br label %20

20:                                               ; preds = %52, %0
  %21 = load i32, i32* %7, align 4
  %22 = load i32, i32* %6, align 4
  %23 = icmp sle i32 %21, %22
  br i1 %23, label %24, label %55

24:                                               ; preds = %20
  %25 = load i32, i32* %7, align 4
  %26 = sub nsw i32 %25, 1
  %27 = sext i32 %26 to i64
  %28 = getelementptr inbounds [100 x i8], [100 x i8]* %2, i64 0, i64 %27
  %29 = load i8, i8* %28, align 1
  %30 = sext i8 %29 to i32
  %31 = icmp eq i32 %30, 32
  br i1 %31, label %32, label %35

32:                                               ; preds = %24
  %33 = load i32, i32* %8, align 4
  %34 = add nsw i32 %33, 1
  store i32 %34, i32* %8, align 4
  store i32 1, i32* %9, align 4
  br label %51

35:                                               ; preds = %24
  %36 = load i32, i32* %7, align 4
  %37 = sub nsw i32 %36, 1
  %38 = sext i32 %37 to i64
  %39 = getelementptr inbounds [100 x i8], [100 x i8]* %2, i64 0, i64 %38
  %40 = load i8, i8* %39, align 1
  %41 = load i32, i32* %8, align 4
  %42 = sub nsw i32 %41, 1
  %43 = sext i32 %42 to i64
  %44 = getelementptr inbounds [50 x [50 x i8]], [50 x [50 x i8]]* %5, i64 0, i64 %43
  %45 = load i32, i32* %9, align 4
  %46 = sub nsw i32 %45, 1
  %47 = sext i32 %46 to i64
  %48 = getelementptr inbounds [50 x i8], [50 x i8]* %44, i64 0, i64 %47
  store i8 %40, i8* %48, align 1
  %49 = load i32, i32* %9, align 4
  %50 = add nsw i32 %49, 1
  store i32 %50, i32* %9, align 4
  br label %51

51:                                               ; preds = %35, %32
  br label %52

52:                                               ; preds = %51
  %53 = load i32, i32* %7, align 4
  %54 = add nsw i32 %53, 1
  store i32 %54, i32* %7, align 4
  br label %20

55:                                               ; preds = %20
  store i32 1, i32* %7, align 4
  br label %56

56:                                               ; preds = %78, %55
  %57 = load i32, i32* %7, align 4
  %58 = load i32, i32* %8, align 4
  %59 = icmp sle i32 %57, %58
  br i1 %59, label %60, label %81

60:                                               ; preds = %56
  %61 = load i32, i32* %7, align 4
  %62 = sub nsw i32 %61, 1
  %63 = sext i32 %62 to i64
  %64 = getelementptr inbounds [50 x [50 x i8]], [50 x [50 x i8]]* %5, i64 0, i64 %63
  %65 = getelementptr inbounds [50 x i8], [50 x i8]* %64, i64 0, i64 0
  %66 = getelementptr inbounds [100 x i8], [100 x i8]* %3, i64 0, i64 0
  %67 = call i32 @strcmp(i8* %65, i8* %66) #5
  %68 = icmp eq i32 %67, 0
  br i1 %68, label %69, label %77

69:                                               ; preds = %60
  %70 = load i32, i32* %7, align 4
  %71 = sub nsw i32 %70, 1
  %72 = sext i32 %71 to i64
  %73 = getelementptr inbounds [50 x [50 x i8]], [50 x [50 x i8]]* %5, i64 0, i64 %72
  %74 = getelementptr inbounds [50 x i8], [50 x i8]* %73, i64 0, i64 0
  %75 = getelementptr inbounds [100 x i8], [100 x i8]* %4, i64 0, i64 0
  %76 = call i8* @strcpy(i8* %74, i8* %75) #6
  br label %77

77:                                               ; preds = %69, %60
  br label %78

78:                                               ; preds = %77
  %79 = load i32, i32* %7, align 4
  %80 = add nsw i32 %79, 1
  store i32 %80, i32* %7, align 4
  br label %56

81:                                               ; preds = %56
  %82 = getelementptr inbounds [50 x [50 x i8]], [50 x [50 x i8]]* %5, i64 0, i64 0
  %83 = getelementptr inbounds [50 x i8], [50 x i8]* %82, i64 0, i64 0
  %84 = call i32 (i8*, ...) @printf(i8* getelementptr inbounds ([3 x i8], [3 x i8]* @.str, i64 0, i64 0), i8* %83)
  store i32 2, i32* %7, align 4
  br label %85

85:                                               ; preds = %96, %81
  %86 = load i32, i32* %7, align 4
  %87 = load i32, i32* %8, align 4
  %88 = icmp sle i32 %86, %87
  br i1 %88, label %89, label %99

89:                                               ; preds = %85
  %90 = load i32, i32* %7, align 4
  %91 = sub nsw i32 %90, 1
  %92 = sext i32 %91 to i64
  %93 = getelementptr inbounds [50 x [50 x i8]], [50 x [50 x i8]]* %5, i64 0, i64 %92
  %94 = getelementptr inbounds [50 x i8], [50 x i8]* %93, i64 0, i64 0
  %95 = call i32 (i8*, ...) @printf(i8* getelementptr inbounds ([4 x i8], [4 x i8]* @.str.1, i64 0, i64 0), i8* %94)
  br label %96

96:                                               ; preds = %89
  %97 = load i32, i32* %7, align 4
  %98 = add nsw i32 %97, 1
  store i32 %98, i32* %7, align 4
  br label %85

99:                                               ; preds = %85
  ret i32 0
}

; Function Attrs: argmemonly nounwind willreturn
declare void @llvm.memset.p0i8.i64(i8* nocapture writeonly, i8, i64, i1 immarg) #1

declare dso_local i32 @gets(...) #2

; Function Attrs: nounwind readonly
declare dso_local i64 @strlen(i8*) #3

; Function Attrs: nounwind readonly
declare dso_local i32 @strcmp(i8*, i8*) #3

; Function Attrs: nounwind
declare dso_local i8* @strcpy(i8*, i8*) #4

declare dso_local i32 @printf(i8*, ...) #2


!llvm.module.flags = !{!0}
!llvm.ident = !{!1}

!0 = !{i32 1, !"wchar_size", i32 4}
!1 = !{!"clang version 10.0.0-4ubuntu1 "}
