; ModuleID = 'source-C-CXX/18/2537.c'
source_filename = "source-C-CXX/18/2537.c"
target datalayout = "e-m:e-p270:32:32-p271:32:32-p272:64:64-i64:64-f80:128-n8:16:32:64-S128"
target triple = "x86_64-pc-linux-gnu"

@.str = private unnamed_addr constant [3 x i8] c"%s\00", align 1
@.str.1 = private unnamed_addr constant [4 x i8] c" %s\00", align 1

; Function Attrs: nounwind sspstrong uwtable
define dso_local i32 @main() local_unnamed_addr #0 {
  %1 = alloca [100 x i8], align 16
  %2 = alloca [100 x i8], align 16
  %3 = alloca [100 x i8], align 16
  %4 = alloca [50 x [50 x i8]], align 16
  %5 = getelementptr inbounds [100 x i8], [100 x i8]* %1, i64 0, i64 0
  call void @llvm.lifetime.start.p0i8(i64 100, i8* nonnull %5) #7
  %6 = getelementptr inbounds [100 x i8], [100 x i8]* %2, i64 0, i64 0
  call void @llvm.lifetime.start.p0i8(i64 100, i8* nonnull %6) #7
  %7 = getelementptr inbounds [100 x i8], [100 x i8]* %3, i64 0, i64 0
  call void @llvm.lifetime.start.p0i8(i64 100, i8* nonnull %7) #7
  %8 = getelementptr inbounds [50 x [50 x i8]], [50 x [50 x i8]]* %4, i64 0, i64 0, i64 0
  call void @llvm.lifetime.start.p0i8(i64 2500, i8* nonnull %8) #7
  call void @llvm.memset.p0i8.i64(i8* noundef nonnull align 16 dereferenceable(2500) %8, i8 0, i64 2500, i1 false)
  %9 = call i32 (i8*, ...) bitcast (i32 (...)* @gets to i32 (i8*, ...)*)(i8* nonnull %5) #7
  %10 = call i32 (i8*, ...) bitcast (i32 (...)* @gets to i32 (i8*, ...)*)(i8* nonnull %6) #7
  %11 = call i32 (i8*, ...) bitcast (i32 (...)* @gets to i32 (i8*, ...)*)(i8* nonnull %7) #7
  %12 = call i64 @strlen(i8* noundef nonnull %5) #8
  %13 = trunc i64 %12 to i32
  %14 = icmp slt i32 %13, 1
  br i1 %14, label %22, label %15

15:                                               ; preds = %0
  %16 = add i64 %12, 1
  %17 = and i64 %16, 4294967295
  br label %26

18:                                               ; preds = %43
  %19 = icmp slt i32 %44, 1
  br i1 %19, label %20, label %22

20:                                               ; preds = %18
  %21 = call i32 (i8*, ...) @printf(i8* nonnull dereferenceable(1) getelementptr inbounds ([3 x i8], [3 x i8]* @.str, i64 0, i64 0), i8* nonnull %8)
  br label %72

22:                                               ; preds = %0, %18
  %23 = phi i32 [ %44, %18 ], [ 1, %0 ]
  %24 = add nuw i32 %23, 1
  %25 = zext i32 %24 to i64
  br label %48

26:                                               ; preds = %15, %43
  %27 = phi i64 [ 1, %15 ], [ %46, %43 ]
  %28 = phi i32 [ 1, %15 ], [ %45, %43 ]
  %29 = phi i32 [ 1, %15 ], [ %44, %43 ]
  %30 = add nsw i64 %27, -1
  %31 = getelementptr inbounds [100 x i8], [100 x i8]* %1, i64 0, i64 %30
  %32 = load i8, i8* %31, align 1, !tbaa !5
  %33 = icmp eq i8 %32, 32
  br i1 %33, label %34, label %36

34:                                               ; preds = %26
  %35 = add nsw i32 %29, 1
  br label %43

36:                                               ; preds = %26
  %37 = add nsw i32 %29, -1
  %38 = sext i32 %37 to i64
  %39 = add nsw i32 %28, -1
  %40 = sext i32 %39 to i64
  %41 = getelementptr inbounds [50 x [50 x i8]], [50 x [50 x i8]]* %4, i64 0, i64 %38, i64 %40
  store i8 %32, i8* %41, align 1, !tbaa !5
  %42 = add nsw i32 %28, 1
  br label %43

43:                                               ; preds = %34, %36
  %44 = phi i32 [ %35, %34 ], [ %29, %36 ]
  %45 = phi i32 [ 1, %34 ], [ %42, %36 ]
  %46 = add nuw nsw i64 %27, 1
  %47 = icmp eq i64 %46, %17
  br i1 %47, label %18, label %26, !llvm.loop !8

48:                                               ; preds = %22, %56
  %49 = phi i64 [ 1, %22 ], [ %57, %56 ]
  %50 = add nsw i64 %49, -1
  %51 = getelementptr inbounds [50 x [50 x i8]], [50 x [50 x i8]]* %4, i64 0, i64 %50, i64 0
  %52 = call i32 @strcmp(i8* noundef nonnull %51, i8* noundef nonnull %6) #8
  %53 = icmp eq i32 %52, 0
  br i1 %53, label %54, label %56

54:                                               ; preds = %48
  %55 = call i8* @strcpy(i8* noundef nonnull %51, i8* noundef nonnull %7) #7
  br label %56

56:                                               ; preds = %48, %54
  %57 = add nuw nsw i64 %49, 1
  %58 = icmp eq i64 %57, %25
  br i1 %58, label %59, label %48, !llvm.loop !10

59:                                               ; preds = %56
  %60 = call i32 (i8*, ...) @printf(i8* nonnull dereferenceable(1) getelementptr inbounds ([3 x i8], [3 x i8]* @.str, i64 0, i64 0), i8* nonnull %8)
  %61 = icmp slt i32 %23, 2
  br i1 %61, label %72, label %62

62:                                               ; preds = %59
  %63 = add nuw i32 %23, 1
  %64 = zext i32 %63 to i64
  br label %65

65:                                               ; preds = %62, %65
  %66 = phi i64 [ 2, %62 ], [ %70, %65 ]
  %67 = add nsw i64 %66, -1
  %68 = getelementptr inbounds [50 x [50 x i8]], [50 x [50 x i8]]* %4, i64 0, i64 %67, i64 0
  %69 = call i32 (i8*, ...) @printf(i8* nonnull dereferenceable(1) getelementptr inbounds ([4 x i8], [4 x i8]* @.str.1, i64 0, i64 0), i8* nonnull %68)
  %70 = add nuw nsw i64 %66, 1
  %71 = icmp eq i64 %70, %64
  br i1 %71, label %72, label %65, !llvm.loop !11

72:                                               ; preds = %65, %20, %59
  call void @llvm.lifetime.end.p0i8(i64 2500, i8* nonnull %8) #7
  call void @llvm.lifetime.end.p0i8(i64 100, i8* nonnull %7) #7
  call void @llvm.lifetime.end.p0i8(i64 100, i8* nonnull %6) #7
  call void @llvm.lifetime.end.p0i8(i64 100, i8* nonnull %5) #7
  ret i32 0
}

; Function Attrs: argmemonly mustprogress nofree nosync nounwind willreturn
declare void @llvm.lifetime.start.p0i8(i64 immarg, i8* nocapture) #1

; Function Attrs: argmemonly mustprogress nofree nounwind willreturn writeonly
declare void @llvm.memset.p0i8.i64(i8* nocapture writeonly, i8, i64, i1 immarg) #2

declare i32 @gets(...) local_unnamed_addr #3

; Function Attrs: argmemonly mustprogress nofree nounwind readonly willreturn
declare i64 @strlen(i8* nocapture) local_unnamed_addr #4

; Function Attrs: argmemonly mustprogress nofree nounwind readonly willreturn
declare i32 @strcmp(i8* nocapture, i8* nocapture) local_unnamed_addr #4

; Function Attrs: argmemonly mustprogress nofree nounwind willreturn
declare i8* @strcpy(i8* noalias returned writeonly, i8* noalias nocapture readonly) local_unnamed_addr #5

; Function Attrs: nofree nounwind
declare noundef i32 @printf(i8* nocapture noundef readonly, ...) local_unnamed_addr #6

; Function Attrs: argmemonly mustprogress nofree nosync nounwind willreturn
declare void @llvm.lifetime.end.p0i8(i64 immarg, i8* nocapture) #1


!llvm.module.flags = !{!0, !1, !2, !3}
!llvm.ident = !{!4}

!0 = !{i32 1, !"wchar_size", i32 4}
!1 = !{i32 7, !"PIC Level", i32 2}
!2 = !{i32 7, !"PIE Level", i32 2}
!3 = !{i32 7, !"uwtable", i32 1}
!4 = !{!"clang version 13.0.0"}
!5 = !{!6, !6, i64 0}
!6 = !{!"omnipotent char", !7, i64 0}
!7 = !{!"Simple C/C++ TBAA"}
!8 = distinct !{!8, !9}
!9 = !{!"llvm.loop.mustprogress"}
!10 = distinct !{!10, !9}
!11 = distinct !{!11, !9}
